(dp1
S'ROI'
p2
(lp3
(I141
I49
tp4
a(I462
I333
tp5
asS'animalID'
p6
S'Generic'
p7
sS'pupil_position'
p8
(lp9
I124
aI162
asS'basepath'
p10
S'C:\\ShrewData\\'
p11
sS'cameraID'
p12
S'Point_Grey'
p13
sS'session_path'
p14
S'C:\\ShrewData\\Generic\\2021-05-09\\0004\\Generic_2021-05-09_4'
p15
sS'cr_position'
p16
(lp17
I145
aI143
asS'ellipse'
p18
((F167.83503723144531
F149.37205505371094
t(F212.21794128417969
F293.58660888671875
tF57.073455810546875
tp19
s.