(dp1
S'ROI'
p2
(lp3
sS'animalID'
p4
S'Generic'
p5
sS'pupil_position'
p6
cnumpy.core.multiarray
_reconstruct
p7
(cnumpy
ndarray
p8
(I0
tS'b'
tRp9
(I1
(L2L
tcnumpy
dtype
p10
(S'i4'
I0
I1
tRp11
(I3
S'<'
NNNI-1
I-1
I0
tbI00
S'\x00\x00\x00\x00\x00\x00\x00\x00'
tbsS'basepath'
p12
S'C:\\ShrewData\\'
p13
sS'cameraID'
p14
S'None'
p15
sS'session_path'
p16
S'C:\\ShrewData\\Generic\\2021-05-03\\0017\\Generic_2021-05-03_17'
p17
sS'cr_position'
p18
g7
(g8
(I0
tS'b'
tRp19
(I1
(L2L
tg11
I00
S'\x00\x00\x00\x00\x00\x00\x00\x00'
tbsS'ellipse'
p20
Ns.