(dp1
S'ROI'
p2
(lp3
(I96
I62
tp4
a(I524
I380
tp5
asS'animalID'
p6
S'Blossom'
p7
sS'pupil_position'
p8
(lp9
I81
aI255
asS'basepath'
p10
S'C:\\ShrewData\\'
p11
sS'cameraID'
p12
S'Point_Grey'
p13
sS'session_path'
p14
S'C:\\ShrewData\\Blossom\\2021-05-09\\0001\\Blossom_2021-05-09_1'
p15
sS'cr_position'
p16
(lp17
I213
aI172
asS'ellipse'
p18
((F234.89179992675781
F160.81924438476562
t(F179.13160705566406
F282.70870971679688
tF21.121927261352539
tp19
s.